---
triple:          'arm64-apple-darwin'
binary-path:     temp
relocations:
  - { offsetInCU: 0x30CBF, offset: 0x30CBF, size: 0x8, addend: 0x0, symName: __ZStL8__ioinit, symObjAddr: 0xDF5D8, symBinAddr: 0x100008000, symSize: 0x0 }
  - { offsetInCU: 0x31133, offset: 0x31133, size: 0x8, addend: 0x0, symName: _RNG, symObjAddr: 0xDF5E0, symBinAddr: 0x100008008, symSize: 0x0 }
  - { offsetInCU: 0x31753, offset: 0x31753, size: 0x8, addend: 0x0, symName: __ZNSt15__new_allocatorIxE10deallocateEPxm, symObjAddr: 0x5E8, symBinAddr: 0x1000037C8, symSize: 0x30 }
  - { offsetInCU: 0x31798, offset: 0x31798, size: 0x8, addend: 0x0, symName: __ZSt10destroy_atIxEvPT_, symObjAddr: 0x5D4, symBinAddr: 0x1000037B4, symSize: 0x14 }
  - { offsetInCU: 0x31818, offset: 0x31818, size: 0x8, addend: 0x0, symName: __ZNSt8__detail4_ModIyLy312ELy1ELy0ELb1ELb1EE6__calcEy, symObjAddr: 0x578, symBinAddr: 0x100003758, symSize: 0x5C }
  - { offsetInCU: 0x31851, offset: 0x31851, size: 0x8, addend: 0x0, symName: __ZNSt8__detail4_ModIyLy0ELy1ELy0ELb1ELb0EE6__calcEy, symObjAddr: 0x55C, symBinAddr: 0x10000373C, symSize: 0x1C }
  - { offsetInCU: 0x3188A, offset: 0x3188A, size: 0x8, addend: 0x0, symName: __ZSt8_DestroyIPxEvT_S1_, symObjAddr: 0x500, symBinAddr: 0x1000036E0, symSize: 0x5C }
  - { offsetInCU: 0x3193A, offset: 0x3193A, size: 0x8, addend: 0x0, symName: __ZNSt8__detail5__modIyLy312ELy1ELy0EEET_S1_, symObjAddr: 0x4E4, symBinAddr: 0x1000036C4, symSize: 0x1C }
  - { offsetInCU: 0x3198B, offset: 0x3198B, size: 0x8, addend: 0x0, symName: __ZNSt8__detail5__modIyLy0ELy1ELy0EEET_S1_, symObjAddr: 0x4C8, symBinAddr: 0x1000036A8, symSize: 0x1C }
  - { offsetInCU: 0x31A1B, offset: 0x31A1B, size: 0x8, addend: 0x0, symName: __ZNSt12_Vector_baseIxSaIxEE19_M_get_Tp_allocatorEv, symObjAddr: 0x4B4, symBinAddr: 0x100003694, symSize: 0x14 }
  - { offsetInCU: 0x31A45, offset: 0x31A45, size: 0x8, addend: 0x0, symName: __ZNSt12_Vector_baseIxSaIxEE13_M_deallocateEPxm, symObjAddr: 0x428, symBinAddr: 0x100003608, symSize: 0x8C }
  - { offsetInCU: 0x31B17, offset: 0x31B17, size: 0x8, addend: 0x0, symName: __ZNSt23mersenne_twister_engineIyLm64ELm312ELm156ELm31ELy13043109905998158313ELm29ELy6148914691236517205ELm17ELy8202884508482404352ELm37ELy18444473444759240704ELm43ELy6364136223846793005EE4seedEy, symObjAddr: 0x354, symBinAddr: 0x100003534, symSize: 0xD4 }
  - { offsetInCU: 0x31B95, offset: 0x31B95, size: 0x8, addend: 0x0, symName: __ZNSt6chronomiIxSt5ratioILl1ELl1000000000EExS2_EENSt11common_typeIJNS_8durationIT_T0_EENS4_IT1_T2_EEEE4typeERKS7_RKSA_, symObjAddr: 0x2F0, symBinAddr: 0x1000034D0, symSize: 0x64 }
  - { offsetInCU: 0x31C01, offset: 0x31C01, size: 0x8, addend: 0x0, symName: __ZNSt6chrono13duration_castINS_8durationIxSt5ratioILl1ELl1000000000EEEExS3_EENSt9enable_ifIXsrNS_13__is_durationIT_EE5valueES7_E4typeERKNS1_IT0_T1_EE, symObjAddr: 0x2D8, symBinAddr: 0x1000034B8, symSize: 0x18 }
  - { offsetInCU: 0x31C7A, offset: 0x31C7A, size: 0x8, addend: 0x0, symName: __ZNSt6vectorIxSaIxEED1Ev, symObjAddr: 0x27C, symBinAddr: 0x10000345C, symSize: 0x5C }
  - { offsetInCU: 0x31CF7, offset: 0x31CF7, size: 0x8, addend: 0x0, symName: __ZNSt12_Vector_baseIxSaIxEED2Ev, symObjAddr: 0x22C, symBinAddr: 0x10000340C, symSize: 0x50 }
  - { offsetInCU: 0x31DFB, offset: 0x31DFB, size: 0x8, addend: 0x0, symName: __ZNSt23mersenne_twister_engineIyLm64ELm312ELm156ELm31ELy13043109905998158313ELm29ELy6148914691236517205ELm17ELy8202884508482404352ELm37ELy18444473444759240704ELm43ELy6364136223846793005EEC1Ey, symObjAddr: 0x204, symBinAddr: 0x1000033E4, symSize: 0x28 }
  - { offsetInCU: 0x31D6E, offset: 0x31D6E, size: 0x8, addend: 0x0, symName: __ZNKSt6chrono10time_pointINS_3_V212steady_clockENS_8durationIxSt5ratioILl1ELl1000000000EEEEE16time_since_epochEv, symObjAddr: 0x1EC, symBinAddr: 0x1000033CC, symSize: 0x18 }
  - { offsetInCU: 0x31D9C, offset: 0x31D9C, size: 0x8, addend: 0x0, symName: _main, symObjAddr: 0xF0, symBinAddr: 0x1000032D0, symSize: 0xFC }
  - { offsetInCU: 0x31E1B, offset: 0x31E1B, size: 0x8, addend: 0x0, symName: __ZNKSt6chrono10time_pointINS_3_V212system_clockENS_8durationIxSt5ratioILl1ELl1000000000EEEEE16time_since_epochEv, symObjAddr: 0xD8, symBinAddr: 0x1000032B8, symSize: 0x18 }
  - { offsetInCU: 0x31E47, offset: 0x31E47, size: 0x8, addend: 0x0, symName: __ZNSt6chronomiINS_3_V212system_clockENS_8durationIxSt5ratioILl1ELl1000000000EEEES6_EENSt11common_typeIJT0_T1_EE4typeERKNS_10time_pointIT_S8_EERKNSC_ISD_S9_EE, symObjAddr: 0x9C, symBinAddr: 0x10000327C, symSize: 0x3C }
  - { offsetInCU: 0x31EAD, offset: 0x31EAD, size: 0x8, addend: 0x0, symName: __Z5Solvev, symObjAddr: 0x60, symBinAddr: 0x100003240, symSize: 0x3C }
  - { offsetInCU: 0x31F29, offset: 0x31F29, size: 0x8, addend: 0x0, symName: __ZNSt12_Vector_baseIxSaIxEE12_Vector_implD1Ev, symObjAddr: 0x40, symBinAddr: 0x100003220, symSize: 0x20 }
  - { offsetInCU: 0x31FB4, offset: 0x31FB4, size: 0x8, addend: 0x0, symName: __ZNSt6chrono8durationIxSt5ratioILl1ELl1000000000EEEC1IxvEERKT_, symObjAddr: 0x18, symBinAddr: 0x1000031F8, symSize: 0x28 }
  - { offsetInCU: 0x31FB1, offset: 0x31FB1, size: 0x8, addend: 0x0, symName: __ZNKSt6chrono8durationIxSt5ratioILl1ELl1000000000EEE5countEv, symObjAddr: 0x0, symBinAddr: 0x1000031E0, symSize: 0x18 }
...
